(lp1
(dp2
S'num_fair'
p3
I183
sS'num_hard'
p4
I6
sVname
p5
VRed River Gorge
p6
sVroute
p7
(lp8
(dp9
S'hard'
p10
F1
sVname
p11
V*Check Your Grip
p12
sS'fair'
p13
F182
sVgrade
p14
V7a+
p15
sVavg_stars
p16
V1,5
p17
sS'fairness'
p18
F-0.085000000000000006
sS'total'
p19
F200
sS'soft'
p20
F17
sa(dp21
g10
F12
sVname
p22
VFuzzy Undercling
p23
sg13
F177
sVgrade
p24
V6c+
p25
sVavg_stars
p26
V1,4
p27
sg18
F0.059999999999999998
sg19
F200
sg20
F11
sa(dp28
g10
F4
sVname
p29
VWhip-Stocking
p30
sg13
F191
sVgrade
p31
V6c
p32
sVavg_stars
p33
V1,4
p34
sg18
F-0.025000000000000001
sg19
F200
sg20
F5
sa(dp35
g10
F3
sVname
p36
VRo Shampo
p37
sg13
F171
sVgrade
p38
V7a+
p39
sVavg_stars
p40
V1,4
p41
sg18
F-0.13
sg19
F200
sg20
F26
sa(dp42
g10
F19
sVname
p43
VChainsaw Massacre
p44
sg13
F178
sVgrade
p45
V7a+
p46
sVavg_stars
p47
V1,3
p48
sg18
F0.095000000000000001
sg19
F200
sg20
F3
sa(dp49
g10
F2
sVname
p50
VWild Yet Tasty
p51
sg13
F165
sVgrade
p52
V7a+
p53
sVavg_stars
p54
V1,1
p55
sg18
F-0.16500000000000001
sg19
F200
sg20
F33
sa(dp56
g10
F0
sVname
p57
VAir-Ride Equipped
p58
sg13
F188
sVgrade
p59
V6c
p60
sVavg_stars
p61
V1,2
p62
sg18
F-0.059999999999999998
sg19
F200
sg20
F12
sa(dp63
g10
F2
sVname
p64
V*Tuna Town
p65
sg13
F166
sVgrade
p66
V7c
p67
sVavg_stars
p68
V1,7
p69
sg18
F-0.16
sg19
F200
sg20
F32
sa(dp70
g10
F6
sVname
p71
VTwinkie
p72
sg13
F184
sVgrade
p73
V7a+
p74
sVavg_stars
p75
V1,7
p76
sg18
F-0.050000000000000003
sg19
F200
sg20
F10
sa(dp77
g10
F0
sVname
p78
VSuper Best Friends
p79
sg13
F173
sVgrade
p80
V7b
p81
sVavg_stars
p82
V1,5
p83
sg18
F-0.13500000000000001
sg19
F200
sg20
F27
sa(dp84
g10
F8
sVname
p85
VAle-8-One
p86
sg13
F190
sVgrade
p87
V7b
p88
sVavg_stars
p89
V1,3
p90
sg18
F0.040000000000000001
sg19
F200
sg20
F2
sa(dp91
g10
F22
sVname
p92
VTo Defy The Laws of Tradition
p93
sg13
F176
sVgrade
p94
V6a
p95
sVavg_stars
p96
V1,5
p97
sg18
F0.11
sg19
F200
sg20
F2
sa(dp98
g10
F9
sVname
p99
VKick Me In The Jimmie
p100
sg13
F187
sVgrade
p101
V7a+
p102
sVavg_stars
p103
V1,1
p104
sg18
F0.044999999999999998
sg19
F200
sg20
F4
sa(dp105
g10
F41
sVname
p106
VMercy, The Huff
p107
sg13
F151
sVgrade
p108
V7b
p109
sVavg_stars
p110
V1,7
p111
sg18
F0.20499999999999999
sg19
F200
sg20
F8
sa(dp112
g10
F6
sVname
p113
VGung Ho
p114
sg13
F187
sVgrade
p115
V7b
p116
sVavg_stars
p117
V1,5
p118
sg18
F-0.035000000000000003
sg19
F200
sg20
F7
sa(dp119
g10
F8
sVname
p120
VTissue Tiger
p121
sg13
F188
sVgrade
p122
V7b
p123
sVavg_stars
p124
V1,4
p125
sg18
F0.040000000000000001
sg19
F200
sg20
F4
sa(dp126
g10
F5
sVname
p127
VPrimus Noctum
p128
sg13
F186
sVgrade
p129
V7a+
p130
sVavg_stars
p131
V1,3
p132
sg18
F-0.044999999999999998
sg19
F200
sg20
F9
sa(dp133
g10
F5
sVname
p134
VJesus Wept
p135
sg13
F172
sVgrade
p136
V7c
p137
sVavg_stars
p138
V1,8
p139
sg18
F-0.115
sg19
F200
sg20
F23
sa(dp140
g10
F4
sVname
p141
VManifest Destiny
p142
sg13
F144
sVgrade
p143
V7a+
p144
sVavg_stars
p145
V1,1
p146
sg18
F-0.26000000000000001
sg19
F200
sg20
F52
sa(dp147
g10
F3
sVname
p148
VTacit
p149
sg13
F182
sVgrade
p150
V7a+
p151
sVavg_stars
p152
V1,1
p153
sg18
F-0.074999999999999997
sg19
F200
sg20
F15
sa(dp154
g10
F1
sVname
p155
VFar From God
p156
sg13
F160
sVgrade
p157
V7b
p158
sVavg_stars
p159
V1,5
p160
sg18
F-0.19500000000000001
sg19
F200
sg20
F39
sa(dp161
g10
F5
sVname
p162
VSnooker
p163
sg13
F182
sVgrade
p164
V7c+
p165
sVavg_stars
p166
V1,8
p167
sg18
F-0.065000000000000002
sg19
F200
sg20
F13
sa(dp168
g10
F2
sVname
p169
VThe Force
p170
sg13
F178
sVgrade
p171
V7c+
p172
sVavg_stars
p173
V1,7
p174
sg18
F-0.10000000000000001
sg19
F200
sg20
F20
sa(dp175
g10
F1
sVname
p176
VBurlier's Bane
p177
sg13
F167
sVgrade
p178
V7a+
p179
sVavg_stars
p180
V1
sg18
F-0.16
sg19
F200
sg20
F32
sa(dp181
g10
F8
sVname
p182
VCell Block Six
p183
sg13
F169
sVgrade
p184
V7b+
p185
sVavg_stars
p186
V1,9
p187
sg18
F0.044198895027624308
sg19
F181
sg20
F4
sa(dp188
g10
F0
sVname
p189
VSupafly
p190
sg13
F154
sVgrade
p191
V7b
p192
sVavg_stars
p193
V1,5
p194
sg18
F-0.23000000000000001
sg19
F200
sg20
F46
sa(dp195
g10
F9
sVname
p196
VAbiyoyo
p197
sg13
F144
sVgrade
p198
V7b
p199
sVavg_stars
p200
V1,8
p201
sg18
F-0.10000000000000001
sg19
F170
sg20
F17
sa(dp202
g10
F23
sVname
p203
VInfectious
p204
sg13
F173
sVgrade
p205
V7b
p206
sVavg_stars
p207
V1,6
p208
sg18
F0.115
sg19
F200
sg20
F4
sa(dp209
g10
F4
sVname
p210
VFire and Brimstone
p211
sg13
F163
sVgrade
p212
V6b+
p213
sVavg_stars
p214
V1,3
p215
sg18
F-0.087431693989071038
sg19
F183
sg20
F16
sa(dp216
g10
F22
sVname
p217
VConvicted
p218
sg13
F175
sVgrade
p219
V7c+
p220
sVavg_stars
p221
V1,8
p222
sg18
F0.11055276381909548
sg19
F199
sg20
F2
sa(dp223
g10
F131
sVname
p224
VBreakfast Burrito
p225
sg13
F68
sVgrade
p226
V6b
p227
sVavg_stars
p228
V1,2
p229
sg18
F0.65500000000000003
sg19
F200
sg20
F1
sa(dp230
g10
F1
sVname
p231
VBettavul Pipeline
p232
sg13
F179
sVgrade
p233
V7a+
p234
sVavg_stars
p235
V1,2
p236
sg18
F-0.047619047619047616
sg19
F189
sg20
F9
sa(dp237
g10
F3
sVname
p238
VToker
p239
sg13
F165
sVgrade
p240
V6c
p241
sVavg_stars
p242
V1,1
p243
sg18
F-0.13846153846153847
sg19
F195
sg20
F27
sa(dp244
g10
F7
sVname
p245
V*Banshee
p246
sg13
F139
sVgrade
p247
V6c+
p248
sVavg_stars
p249
V1,7
p250
sg18
F-0.070063694267515922
sg19
F157
sg20
F11
sa(dp251
g10
F21
sVname
p252
VResurrection
p253
sg13
F164
sVgrade
p254
V7b+
p255
sVavg_stars
p256
V1,6
p257
sg18
F0.11290322580645161
sg19
F186
sg20
F1
sa(dp258
g10
F8
sVname
p259
VStain
p260
sg13
F180
sVgrade
p261
V7b+
p262
sVavg_stars
p263
V1,6
p264
sg18
F-0.059999999999999998
sg19
F200
sg20
F12
sa(dp265
g10
F9
sVname
p266
VSex Farm
p267
sg13
F161
sVgrade
p268
V7b
p269
sVavg_stars
p270
V1,7
p271
sg18
F0.052023121387283239
sg19
F173
sg20
F3
sa(dp272
g10
F18
sVname
p273
VIniquity
p274
sg13
F153
sVgrade
p275
V7b
p276
sVavg_stars
p277
V1,7
p278
sg18
F0.10227272727272728
sg19
F176
sg20
F5
sa(dp279
g10
F12
sVname
p280
VSpirit Fingers
p281
sg13
F154
sVgrade
p282
V6c+
p283
sVavg_stars
p284
V1,2
p285
sg18
F0.068965517241379309
sg19
F174
sg20
F8
sa(dp286
g10
F40
sVname
p287
VBuddha Hole
p288
sg13
F158
sVgrade
p289
V7a
p290
sVavg_stars
p291
V1,4
p292
sg18
F0.20000000000000001
sg19
F200
sg20
F2
sa(dp293
g10
F26
sVname
p294
VBuff The Wood
p295
sg13
F170
sVgrade
p296
V7b
p297
sVavg_stars
p298
V1,6
p299
sg18
F0.1306532663316583
sg19
F199
sg20
F3
sa(dp300
g10
F3
sVname
p301
VBohica
p302
sg13
F158
sVgrade
p303
V8a
p304
sVavg_stars
p305
V1,8
p306
sg18
F-0.11538461538461539
sg19
F182
sg20
F21
sa(dp307
g10
F6
sVname
p308
VHippocrite
p309
sg13
F154
sVgrade
p310
V7a+
p311
sVavg_stars
p312
V1,6
p313
sg18
F-0.041916167664670656
sg19
F167
sg20
F7
sa(dp314
g10
F3
sVname
p315
VMosaic
p316
sg13
F141
sVgrade
p317
V7b+
p318
sVavg_stars
p319
V1,6
p320
sg18
F-0.22994652406417113
sg19
F187
sg20
F43
sa(dp321
g10
F6
sVname
p322
VFourty Ounces of Justice
p323
sg13
F153
sVgrade
p324
V7c+
p325
sVavg_stars
p326
V1,6
p327
sg18
F0.036585365853658534
sg19
F164
sg20
F5
sa(dp328
g10
F4
sVname
p329
VMirage
p330
sg13
F130
sVgrade
p331
V7b+
p332
sVavg_stars
p333
V1,8
p334
sg18
F-0.12418300653594772
sg19
F153
sg20
F19
sa(dp335
g10
F5
sVname
p336
VA Brief History of Climb
p337
sg13
F130
sVgrade
p338
V6b
p339
sVavg_stars
p340
V1,2
p341
sg18
F-0.20118343195266272
sg19
F169
sg20
F34
sa(dp342
g10
F3
sVname
p343
VImmaculate Deception
p344
sg13
F127
sVgrade
p345
V7a+
p346
sVavg_stars
p347
V1,1
p348
sg18
F-0.32989690721649484
sg19
F194
sg20
F64
sa(dp349
g10
F2
sVname
p350
VBathtub mary
p351
sg13
F133
sVgrade
p352
V6c
p353
sVavg_stars
p354
V1,3
p355
sg18
F-0.11764705882352941
sg19
F153
sg20
F18
sa(dp356
g10
F9
sVname
p357
VStunning the Hog
p358
sg13
F150
sVgrade
p359
V7c
p360
sVavg_stars
p361
V2
sg18
F0.054878048780487805
sg19
F164
sg20
F5
sa(dp362
g10
F59
sVname
p363
VReliquary
p364
sg13
F138
sVgrade
p365
V7b
p366
sVavg_stars
p367
V1,5
p368
sg18
F0.29499999999999998
sg19
F200
sg20
F3
sa(dp369
g10
F2
sVname
p370
VMagnum Opus
p371
sg13
F139
sVgrade
p372
V7b
p373
sVavg_stars
p374
V1,3
p375
sg18
F-0.29499999999999998
sg19
F200
sg20
F59
sa(dp376
g10
F28
sVname
p377
VDogleg
p378
sg13
F112
sVgrade
p379
V7a+
p380
sVavg_stars
p381
V1,9
p382
sg18
F0.19858156028368795
sg19
F141
sg20
F1
sa(dp383
g10
F8
sVname
p384
VCreep Show
p385
sg13
F128
sVgrade
p386
V6b+
p387
sVavg_stars
p388
V1,3
p389
sg18
F0.055944055944055944
sg19
F143
sg20
F7
sa(dp390
g10
F4
sVname
p391
VGluttony
p392
sg13
F123
sVgrade
p393
V7a+
p394
sVavg_stars
p395
V1,5
p396
sg18
F-0.059259259259259262
sg19
F135
sg20
F8
sa(dp397
g10
F8
sVname
p398
VSkin Boat
p399
sg13
F158
sVgrade
p400
V7c+
p401
sVavg_stars
p402
V1,6
p403
sg18
F0.046783625730994149
sg19
F171
sg20
F5
sa(dp404
g10
F7
sVname
p405
VWild Gift
p406
sg13
F139
sVgrade
p407
V7b+
p408
sVavg_stars
p409
V1,8
p410
sg18
F0.046666666666666669
sg19
F150
sg20
F4
sa(dp411
g10
F7
sVname
p412
VRocket Dog
p413
sg13
F141
sVgrade
p414
V7b
p415
sVavg_stars
p416
V1,3
p417
sg18
F0.045751633986928102
sg19
F153
sg20
F5
sa(dp418
g10
F16
sVname
p419
VGreen Horn
p420
sg13
F142
sVgrade
p421
V6c
p422
sVavg_stars
p423
V,9
p424
sg18
F0.09696969696969697
sg19
F165
sg20
F7
sa(dp425
g10
F14
sVname
p426
VStay The Hand
p427
sg13
F147
sVgrade
p428
V7a+
p429
sVavg_stars
p430
V1,5
p431
sg18
F0.085365853658536592
sg19
F164
sg20
F3
sa(dp432
g10
F4
sVname
p433
VHerd Mentality
p434
sg13
F116
sVgrade
p435
V7b+
p436
sVavg_stars
p437
V1,4
p438
sg18
F-0.14285714285714285
sg19
F140
sg20
F20
sa(dp439
g10
F9
sVname
p440
VGettin' Lucky In Kentucky
p441
sg13
F123
sVgrade
p442
V6a+
p443
sVavg_stars
p444
V1,1
p445
sg18
F0.064285714285714279
sg19
F140
sg20
F8
sa(dp446
g10
F8
sVname
p447
VAquaduck Pocket
p448
sg13
F149
sVgrade
p449
V6c+
p450
sVavg_stars
p451
V,9
p452
sg18
F-0.16042780748663102
sg19
F187
sg20
F30
sa(dp453
g10
F9
sVname
p454
VPrometheus Unbound
p455
sg13
F126
sVgrade
p456
V7c+
p457
sVavg_stars
p458
V2
sg18
F0.06569343065693431
sg19
F137
sg20
F2
sa(dp459
g10
F13
sVname
p460
VCrazy Fingers
p461
sg13
F119
sVgrade
p462
V6b
p463
sVavg_stars
p464
V1,3
p465
sg18
F0.09285714285714286
sg19
F140
sg20
F8
sa(dp466
g10
F25
sVname
p467
VBare Metal Teen
p468
sg13
F111
sVgrade
p469
V7a+
p470
sVavg_stars
p471
V1,7
p472
sg18
F0.18382352941176472
sg19
F136
sg20
F0
sa(dp473
g10
F10
sVname
p474
VOrange juice
p475
sg13
F121
sVgrade
p476
V7b+
p477
sVavg_stars
p478
V2
sg18
F0.075187969924812026
sg19
F133
sg20
F2
sa(dp479
g10
F22
sVname
p480
VHarvest
p481
sg13
F129
sVgrade
p482
V7c
p483
sVavg_stars
p484
V1,5
p485
sg18
F0.13580246913580246
sg19
F162
sg20
F11
sa(dp486
g10
F4
sVname
p487
VBelly of The Beast
p488
sg13
F125
sVgrade
p489
V7b+
p490
sVavg_stars
p491
V1,6
p492
sg18
F0
sg19
F133
sg20
F4
sa(dp493
g10
F12
sVname
p494
VBandolier
p495
sg13
F117
sVgrade
p496
V6c
p497
sVavg_stars
p498
V1,5
p499
sg18
F0.086956521739130432
sg19
F138
sg20
F9
sa(dp500
g10
F36
sVname
p501
V8-Ball
p502
sg13
F105
sVgrade
p503
V7c
p504
sVavg_stars
p505
V2
sg18
F0.25352112676056338
sg19
F142
sg20
F1
sa(dp506
g10
F37
sVname
p507
VTable of Colors
p508
sg13
F130
sVgrade
p509
V7c+
p510
sVavg_stars
p511
V2
sg18
F0.21264367816091953
sg19
F174
sg20
F7
sa(dp512
g10
F18
sVname
p513
VAmarillo Sunset
p514
sg13
F103
sVgrade
p515
V6c+
p516
sVavg_stars
p517
V1,7
p518
sg18
F0.13953488372093023
sg19
F129
sg20
F8
sa(dp519
g10
F1
sVname
p520
VDirty Smelly Hippie
p521
sg13
F115
sVgrade
p522
V8a
p523
sVavg_stars
p524
V1,5
p525
sg18
F-0.30120481927710846
sg19
F166
sg20
F50
sa(dp526
g10
F11
sVname
p527
VGold rush
p528
sg13
F107
sVgrade
p529
V7a
p530
sVavg_stars
p531
V1,6
p532
sg18
F0.090909090909090912
sg19
F121
sg20
F3
sa(dp533
g10
F1
sVname
p534
VYadda Yadda Yadda
p535
sg13
F116
sVgrade
p536
V6c+
p537
sVavg_stars
p538
V1,2
p539
sg18
F-0.10687022900763359
sg19
F131
sg20
F14
sa(dp540
g10
F2
sVname
p541
VHoofmaker
p542
sg13
F120
sVgrade
p543
V7c+
p544
sVavg_stars
p545
V1,4
p546
sg18
F-0.15277777777777779
sg19
F144
sg20
F22
sa(dp547
g10
F2
sVname
p548
VHakuna Matata
p549
sg13
F108
sVgrade
p550
V7a+
p551
sVavg_stars
p552
V1,4
p553
sg18
F-0.026548672566371681
sg19
F113
sg20
F3
sa(dp554
g10
F14
sVname
p555
VSunshine
p556
sg13
F116
sVgrade
p557
V5c
p558
sVavg_stars
p559
V,9
p560
sg18
F0.1037037037037037
sg19
F135
sg20
F5
sa(dp561
g10
F3
sVname
p562
VBlue Eyed Honkey Jesus
p563
sg13
F112
sVgrade
p564
V7b+
p565
sVavg_stars
p566
V1,5
p567
sg18
F-0.42499999999999999
sg19
F200
sg20
F85
sa(dp568
g10
F6
sVname
p569
VEasy Rider
p570
sg13
F113
sVgrade
p571
V7c+
p572
sVavg_stars
p573
V1,5
p574
sg18
F-0.098484848484848481
sg19
F132
sg20
F13
sa(dp575
g10
F10
sVname
p576
VLoompa
p577
sg13
F105
sVgrade
p578
V6b
p579
sVavg_stars
p580
V1,3
p581
sg18
F0.084745762711864403
sg19
F118
sg20
F3
sa(dp582
g10
F1
sVname
p583
VScar Tissue
p584
sg13
F113
sVgrade
p585
V7a+
p586
sVavg_stars
p587
V1,3
p588
sg18
F-0.087999999999999995
sg19
F125
sg20
F11
sa(dp589
g10
F23
sVname
p590
VEthics Police
p591
sg13
F100
sVgrade
p592
V7a
p593
sVavg_stars
p594
V1,4
p595
sg18
F0.18699186991869918
sg19
F123
sg20
F0
sa(dp596
g10
F4
sVname
p597
VFlour Power
p598
sg13
F124
sVgrade
p599
V8a
p600
sVavg_stars
p601
V1,7
p602
sg18
F-0.044776119402985072
sg19
F134
sg20
F6
sa(dp603
g10
F4
sVname
p604
VTrust in Jesus
p605
sg13
F111
sVgrade
p606
V6c+
p607
sVavg_stars
p608
V1,1
p609
sg18
F-0.12213740458015267
sg19
F131
sg20
F16
sa(dp610
g10
F4
sVname
p611
VWhere's the Beef?
p612
sg13
F118
sVgrade
p613
V7b+
p614
sVavg_stars
p615
V1,4
p616
sg18
F-0.061538461538461542
sg19
F130
sg20
F8
sa(dp617
g10
F5
sVname
p618
VCenterfire
p619
sg13
F98
sVgrade
p620
V6c+
p621
sVavg_stars
p622
V1,6
p623
sg18
F0.04716981132075472
sg19
F106
sg20
F3
sa(dp624
g10
F19
sVname
p625
VMoonbeam
p626
sg13
F112
sVgrade
p627
V5c
p628
sVavg_stars
p629
V,8
p630
sg18
F0.12837837837837837
sg19
F148
sg20
F17
sa(dp631
g10
F5
sVname
p632
VThe Return of Chris Snyder
p633
sg13
F95
sVgrade
p634
V7a
p635
sVavg_stars
p636
V1,6
p637
sg18
F-0.056603773584905662
sg19
F106
sg20
F6
sa(dp638
g10
F38
sVname
p639
VToo Many Puppies
p640
sg13
F88
sVgrade
p641
V7a+
p642
sVavg_stars
p643
V1,6
p644
sg18
F0.29230769230769232
sg19
F130
sg20
F4
sa(dp645
g10
F2
sVname
p646
VKaleidoscope
p647
sg13
F91
sVgrade
p648
V8a+
p649
sVavg_stars
p650
V2
sg18
F-0.23770491803278687
sg19
F122
sg20
F29
sa(dp651
g10
F2
sVname
p652
VMona Lisa Overdrive
p653
sg13
F122
sVgrade
p654
V6c+
p655
sVavg_stars
p656
V1
sg18
F-0.12676056338028169
sg19
F142
sg20
F18
sa(dp657
g10
F0
sVname
p658
VRecoil
p659
sg13
F95
sVgrade
p660
V7a
p661
sVavg_stars
p662
V1,2
p663
sg18
F-0.14414414414414414
sg19
F111
sg20
F16
sa(dp664
g10
F39
sVname
p665
VA.W.O.L.
p666
sg13
F108
sVgrade
p667
V6a
p668
sVavg_stars
p669
V1,1
p670
sg18
F0.26530612244897961
sg19
F147
sg20
F0
sa(dp671
g10
F22
sVname
p672
VHeart shaped box
p673
sg13
F109
sVgrade
p674
V7b+
p675
sVavg_stars
p676
V1,6
p677
sg18
F0.16541353383458646
sg19
F133
sg20
F2
sa(dp678
g10
F2
sVname
p679
VTapeworm
p680
sg13
F92
sVgrade
p681
V7c
p682
sVavg_stars
p683
V2
sg18
F-0.059999999999999998
sg19
F100
sg20
F6
sa(dp684
g10
F1
sVname
p685
VNaked Lunch
p686
sg13
F83
sVgrade
p687
V7a+
p688
sVavg_stars
p689
V1,3
p690
sg18
F-0.29411764705882354
sg19
F119
sg20
F35
sa(dp691
g10
F20
sVname
p692
VOompa
p693
sg13
F91
sVgrade
p694
V6a
p695
sVavg_stars
p696
V1
sg18
F0.17543859649122806
sg19
F114
sg20
F3
sa(dp697
g10
F6
sVname
p698
VLeave It To Beavis
p699
sg13
F98
sVgrade
p700
V7c
p701
sVavg_stars
p702
V1,5
p703
sg18
F-0.1111111111111111
sg19
F117
sg20
F13
sa(dp704
g10
F3
sVname
p705
VPulling Pockets
p706
sg13
F103
sVgrade
p707
V6b+
p708
sVavg_stars
p709
V1,3
p710
sg18
F-0.086206896551724144
sg19
F116
sg20
F10
sa(dp711
g10
F5
sVname
p712
VElephant Man
p713
sg13
F110
sVgrade
p714
V8a
p715
sVavg_stars
p716
V1,8
p717
sg18
F0
sg19
F120
sg20
F5
sa(dp718
g10
F6
sVname
p719
VBlood Bath
p720
sg13
F111
sVgrade
p721
V7b+
p722
sVavg_stars
p723
V1,4
p724
sg18
F0.050420168067226892
sg19
F119
sg20
F2
sa(dp725
g10
F0
sVname
p726
VBoltergeist
p727
sg13
F84
sVgrade
p728
V6a+
p729
sVavg_stars
p730
V1,1
p731
sg18
F-0.18446601941747573
sg19
F103
sg20
F19
sa(dp732
g10
F38
sVname
p733
VGalunlati
p734
sg13
F97
sVgrade
p735
V7b
p736
sVavg_stars
p737
V1,3
p738
sg18
F0.26027397260273971
sg19
F146
sg20
F11
sa(dp739
g10
F5
sVname
p740
VCreature Feature
p741
sg13
F92
sVgrade
p742
V5c
p743
sVavg_stars
p744
V1,3
p745
sg18
F-0.093457943925233641
sg19
F107
sg20
F10
sa(dp746
g10
F1
sVname
p747
VJohnny B. Good
p748
sg13
F92
sVgrade
p749
V6c
p750
sVavg_stars
p751
V1,1
p752
sg18
F-0.10576923076923077
sg19
F104
sg20
F11
sa(dp753
g10
F7
sVname
p754
VInjured Reserve
p755
sg13
F113
sVgrade
p756
V6c
p757
sVavg_stars
p758
V1
sg18
F-0.090909090909090912
sg19
F132
sg20
F12
sa(dp759
g10
F8
sVname
p760
V*Annie the Annihilator
p761
sg13
F94
sVgrade
p762
V6b
p763
sVavg_stars
p764
V1
sg18
F0
sg19
F110
sg20
F8
sa(dp765
g10
F7
sVname
p766
VSteelworker
p767
sg13
F94
sVgrade
p768
V7b+
p769
sVavg_stars
p770
V1,8
p771
sg18
F0.069306930693069313
sg19
F101
sg20
F0
sa(dp772
g10
F1
sVname
p773
VShanghai
p774
sg13
F80
sVgrade
p775
V7c
p776
sVavg_stars
p777
V1,6
p778
sg18
F-0.23584905660377359
sg19
F106
sg20
F25
sa(dp779
g10
F7
sVname
p780
VTuskan Raider
p781
sg13
F100
sVgrade
p782
V7c
p783
sVavg_stars
p784
V1,5
p785
sg18
F0.0625
sg19
F112
sg20
F5
sa(dp786
g10
F7
sVname
p787
VBeliever
p788
sg13
F85
sVgrade
p789
V6c+
p790
sVavg_stars
p791
V1,3
p792
sg18
F0.072916666666666671
sg19
F96
sg20
F4
sa(dp793
g10
F1
sVname
p794
VKing Me
p795
sg13
F83
sVgrade
p796
V6c+
p797
sVavg_stars
p798
V1,7
p799
sg18
F-0.086956521739130432
sg19
F92
sg20
F8
sa(dp800
g10
F1
sVname
p801
VMule
p802
sg13
F86
sVgrade
p803
V7b+
p804
sVavg_stars
p805
V1,7
p806
sg18
F-0.05434782608695652
sg19
F92
sg20
F5
sa(dp807
g10
F4
sVname
p808
V27 Years of Climbing
p809
sg13
F92
sVgrade
p810
V5b
p811
sVavg_stars
p812
V1
sg18
F-0.067961165048543687
sg19
F103
sg20
F7
sa(dp813
g10
F36
sVname
p814
VAmerican Dream
p815
sg13
F77
sVgrade
p816
V7b
p817
sVavg_stars
p818
V1,5
p819
sg18
F0.31578947368421051
sg19
F114
sg20
F1
sa(dp820
g10
F1
sVname
p821
VSpank
p822
sg13
F104
sVgrade
p823
V7c+
p824
sVavg_stars
p825
V1,4
p826
sg18
F-0.11016949152542373
sg19
F118
sg20
F13
sa(dp827
g10
F9
sVname
p828
VSuper Pinch
p829
sg13
F95
sVgrade
p830
V6b+
p831
sVavg_stars
p832
V,8
p833
sg18
F-0.095652173913043481
sg19
F115
sg20
F11
sa(dp834
g10
F6
sVname
p835
VThe Infidel
p836
sg13
F63
sVgrade
p837
V7a
p838
sVavg_stars
p839
V2
sg18
F0.083333333333333329
sg19
F72
sg20
F3
sa(dp840
g10
F1
sVname
p841
VCrack The Whip
p842
sg13
F84
sVgrade
p843
V7a+
p844
sVavg_stars
p845
V1
sg18
F-0.30327868852459017
sg19
F122
sg20
F37
sa(dp846
g10
F2
sVname
p847
VJungle Trundler
p848
sg13
F86
sVgrade
p849
V6c
p850
sVavg_stars
p851
V,9
p852
sg18
F-0.12
sg19
F100
sg20
F12
sa(dp853
g10
F11
sVname
p854
VMonkey bars
p855
sg13
F81
sVgrade
p856
V6a
p857
sVavg_stars
p858
V1,1
p859
sg18
F0.11956521739130435
sg19
F92
sg20
F0
sa(dp860
g10
F1
sVname
p861
VRat Stew
p862
sg13
F76
sVgrade
p863
V6a
p864
sVavg_stars
p865
V1,1
p866
sg18
F-0.094117647058823528
sg19
F85
sg20
F8
sa(dp867
g10
F2
sVname
p868
VAnother Doug Reed Route
p869
sg13
F62
sVgrade
p870
V6c+
p871
sVavg_stars
p872
V1,5
p873
sg18
F-0.34020618556701032
sg19
F97
sg20
F33
sa(dp874
g10
F4
sVname
p875
VGirls Gone Wild...WOO!
p876
sg13
F76
sVgrade
p877
V6b+
p878
sVavg_stars
p879
V1,2
p880
sg18
F-0.080459770114942528
sg19
F87
sg20
F7
sa(dp881
g10
F0
sVname
p882
VMonkey In The Middle
p883
sg13
F62
sVgrade
p884
V6c+
p885
sVavg_stars
p886
V1,3
p887
sg18
F-0.53383458646616544
sg19
F133
sg20
F71
sa(dp888
g10
F4
sVname
p889
VCount Floyd Show
p890
sg13
F74
sVgrade
p891
V6c+
p892
sVavg_stars
p893
V1,1
p894
sg18
F-0.12359550561797752
sg19
F89
sg20
F11
sa(dp895
g10
F9
sVname
p896
VThe Madness
p897
sg13
F87
sVgrade
p898
V8a+
p899
sVavg_stars
p900
V1,8
p901
sg18
F0.091836734693877556
sg19
F98
sg20
F2
sa(dp902
g10
F4
sVname
p903
VDragonslayer
p904
sg13
F70
sVgrade
p905
V6b+
p906
sVavg_stars
p907
V1,3
p908
sg18
F-0.10843373493975904
sg19
F83
sg20
F9
sa(dp909
g10
F3
sVname
p910
VEye of the Needle
p911
sg13
F67
sVgrade
p912
V6c+
p913
sVavg_stars
p914
V1,6
p915
sg18
F-0.078947368421052627
sg19
F76
sg20
F6
sa(dp916
g10
F5
sVname
p917
VJersey Connection
p918
sg13
F95
sVgrade
p919
V7b
p920
sVavg_stars
p921
V1,3
p922
sg18
F0
sg19
F105
sg20
F5
sa(dp923
g10
F10
sVname
p924
VMama Benson
p925
sg13
F83
sVgrade
p926
V7a+
p927
sVavg_stars
p928
V1,1
p929
sg18
F0.10309278350515463
sg19
F97
sg20
F4
sa(dp930
g10
F5
sVname
p931
VIn The Light
p932
sg13
F83
sVgrade
p933
V6b
p934
sVavg_stars
p935
V,8
p936
sg18
F-0.063829787234042548
sg19
F94
sg20
F6
sa(dp937
g10
F9
sVname
p938
VPeace Frog
p939
sg13
F71
sVgrade
p940
V7c
p941
sVavg_stars
p942
V1,6
p943
sg18
F0.10344827586206896
sg19
F87
sg20
F7
sa(dp944
g10
F1
sVname
p945
VDynabolt Gold
p946
sg13
F68
sVgrade
p947
V6a
p948
sVavg_stars
p949
V1
sg18
F-0.15853658536585366
sg19
F82
sg20
F13
sa(dp950
g10
F1
sVname
p951
VWildfire
p952
sg13
F73
sVgrade
p953
V7a+
p954
sVavg_stars
p955
V1,5
p956
sg18
F-0.10843373493975904
sg19
F83
sg20
F9
sa(dp957
g10
F67
sVname
p958
VTriple sec
p959
sg13
F68
sVgrade
p960
V7c
p961
sVavg_stars
p962
V1,9
p963
sg18
F0.44370860927152317
sg19
F151
sg20
F16
sa(dp964
g10
F3
sVname
p965
VBall Scratcher
p966
sg13
F63
sVgrade
p967
V7a+
p968
sVavg_stars
p969
V1,4
p970
sg18
F-0.095890410958904104
sg19
F73
sg20
F7
sa(dp971
g10
F2
sVname
p972
V*Return of Manimal
p973
sg13
F69
sVgrade
p974
V6b+
p975
sVavg_stars
p976
V1
sg18
F-0.07792207792207792
sg19
F77
sg20
F6
sa(dp977
g10
F3
sVname
p978
VParadise Lost
p979
sg13
F87
sVgrade
p980
V8a
p981
sVavg_stars
p982
V1,9
p983
sg18
F-0.31297709923664124
sg19
F131
sg20
F41
sa(dp984
g10
F2
sVname
p985
VRandom Precision
p986
sg13
F74
sVgrade
p987
V6c+
p988
sVavg_stars
p989
V1,2
p990
sg18
F-0.050000000000000003
sg19
F80
sg20
F4
sa(dp991
g10
F3
sVname
p992
V5th Bolt Faith
p993
sg13
F80
sVgrade
p994
V6b
p995
sVavg_stars
p996
V,8
p997
sg18
F-0.045977011494252873
sg19
F87
sg20
F4
sa(dp998
g10
F19
sVname
p999
VTeam Wilson
p1000
sg13
F58
sVgrade
p1001
V7c
p1002
sVavg_stars
p1003
V1,8
p1004
sg18
F0.24675324675324675
sg19
F77
sg20
F0
sa(dp1005
g10
F26
sVname
p1006
VCut Throat
p1007
sg13
F59
sVgrade
p1008
V8a
p1009
sVavg_stars
p1010
V2
sg18
F0.2988505747126437
sg19
F87
sg20
F2
sa(dp1011
g10
F2
sVname
p1012
VWay Up Yonder
p1013
sg13
F70
sVgrade
p1014
V7a+
p1015
sVavg_stars
p1016
V1,2
p1017
sg18
F-0.16279069767441862
sg19
F86
sg20
F14
sa(dp1018
g10
F13
sVname
p1019
VThe Legend
p1020
sg13
F77
sVgrade
p1021
V8a
p1022
sVavg_stars
p1023
V1,9
p1024
sg18
F0.14444444444444443
sg19
F90
sg20
F0
sa(dp1025
g10
F3
sVname
p1026
VLittle Teapot
p1027
sg13
F83
sVgrade
p1028
V7a+
p1029
sVavg_stars
p1030
V1
sg18
F0.034482758620689655
sg19
F87
sg20
F1
sa(dp1031
g10
F5
sVname
p1032
V*Golden Touch
p1033
sg13
F78
sVgrade
p1034
V8a
p1035
sVavg_stars
p1036
V1,8
p1037
sg18
F-0.077777777777777779
sg19
F90
sg20
F7
sa(dp1038
g10
F13
sVname
p1039
VBeer Belly
p1040
sg13
F69
sVgrade
p1041
V7c+
p1042
sVavg_stars
p1043
V1,8
p1044
sg18
F0.15116279069767441
sg19
F86
sg20
F4
sa(dp1045
g10
F6
sVname
p1046
VPossum Lips
p1047
sg13
F83
sVgrade
p1048
V6b+
p1049
sVavg_stars
p1050
V,7
p1051
sg18
F-0.11
sg19
F100
sg20
F11
sa(dp1052
g10
F12
sVname
p1053
VSamurai
p1054
sg13
F59
sVgrade
p1055
V7b
p1056
sVavg_stars
p1057
V2,1
p1058
sg18
F0.16901408450704225
sg19
F71
sg20
F0
sa(dp1059
g10
F2
sVname
p1060
VJingus
p1061
sg13
F61
sVgrade
p1062
V6c+
p1063
sVavg_stars
p1064
V1,3
p1065
sg18
F-0.19230769230769232
sg19
F78
sg20
F15
sa(dp1066
g10
F0
sVname
p1067
VPushin' Up Daisies
p1068
sg13
F48
sVgrade
p1069
V8a+
p1070
sVavg_stars
p1071
V1,7
p1072
sg18
F-0.323943661971831
sg19
F71
sg20
F23
sa(dp1073
g10
F44
sVname
p1074
VBreak the Scene
p1075
sg13
F59
sVgrade
p1076
V7a+
p1077
sVavg_stars
p1078
V1,6
p1079
sg18
F0.41904761904761906
sg19
F105
sg20
F2
sa(dp1080
g10
F22
sVname
p1081
VDracula '04
p1082
sg13
F47
sVgrade
p1083
V8a
p1084
sVavg_stars
p1085
V2,2
p1086
sg18
F0.30985915492957744
sg19
F71
sg20
F2
sa(dp1087
g10
F3
sVname
p1088
VTrad Sucker
p1089
sg13
F71
sVgrade
p1090
V6c+
p1091
sVavg_stars
p1092
V1,1
p1093
sg18
F-0.15909090909090909
sg19
F88
sg20
F14
sa(dp1094
g10
F3
sVname
p1095
VDifferent Strokes
p1096
sg13
F73
sVgrade
p1097
V6c+
p1098
sVavg_stars
p1099
V1,1
p1100
sg18
F0.03896103896103896
sg19
F77
sg20
F1
sa(dp1101
g10
F11
sVname
p1102
VWhipper Snapper
p1103
sg13
F71
sVgrade
p1104
V7b
p1105
sVavg_stars
p1106
V1,3
p1107
sg18
F0.12941176470588237
sg19
F85
sg20
F3
sa(dp1108
g10
F4
sVname
p1109
VRelaxed Atmosphere
p1110
sg13
F70
sVgrade
p1111
V6c+
p1112
sVavg_stars
p1113
V1,1
p1114
sg18
F0
sg19
F78
sg20
F4
sa(dp1115
g10
F4
sVname
p1116
VReceiver
p1117
sg13
F64
sVgrade
p1118
V6c+
p1119
sVavg_stars
p1120
V1,3
p1121
sg18
F-0.068493150684931503
sg19
F73
sg20
F5
sa(dp1122
g10
F4
sVname
p1123
VThe Verdict
p1124
sg13
F64
sVgrade
p1125
V7b
p1126
sVavg_stars
p1127
V1,4
p1128
sg18
F0.058823529411764705
sg19
F68
sg20
F0
sa(dp1129
g10
F73
sVname
p1130
VMake a Wish
p1131
sg13
F67
sVgrade
p1132
V6a
p1133
sVavg_stars
p1134
V,9
p1135
sg18
F0.5140845070422535
sg19
F142
sg20
F2
sa(dp1136
g10
F2
sVname
p1137
VPreemptive Strike
p1138
sg13
F58
sVgrade
p1139
V6b
p1140
sVavg_stars
p1141
V1,2
p1142
sg18
F-0.076923076923076927
sg19
F65
sg20
F5
sa(dp1143
g10
F1
sVname
p1144
VFalse Idol
p1145
sg13
F42
sVgrade
p1146
V7b+
p1147
sVavg_stars
p1148
V1,4
p1149
sg18
F-0.5168539325842697
sg19
F89
sg20
F46
sa(dp1150
g10
F20
sVname
p1151
VSuper Dario
p1152
sg13
F60
sVgrade
p1153
V6c
p1154
sVavg_stars
p1155
V1,2
p1156
sg18
F0.23809523809523808
sg19
F84
sg20
F4
sa(dp1157
g10
F4
sVname
p1158
VBethel
p1159
sg13
F62
sVgrade
p1160
V6a
p1161
sVavg_stars
p1162
V1
sg18
F-0.070422535211267609
sg19
F71
sg20
F5
sa(dp1163
g10
F2
sVname
p1164
VPlate Tectonics
p1165
sg13
F69
sVgrade
p1166
V6a
p1167
sVavg_stars
p1168
V,9
p1169
sg18
F-0.44961240310077522
sg19
F129
sg20
F58
sa(dp1170
g10
F1
sVname
p1171
VVelvet
p1172
sg13
F60
sVgrade
p1173
V7a
p1174
sVavg_stars
p1175
V1,4
p1176
sg18
F0
sg19
F62
sg20
F1
sa(dp1177
g10
F5
sVname
p1178
VUltra Perm
p1179
sg13
F56
sVgrade
p1180
V8b
p1181
sVavg_stars
p1182
V1,9
p1183
sg18
F-0.20779220779220781
sg19
F77
sg20
F16
sa(dp1184
g10
F14
sVname
p1185
V*Maypop
p1186
sg13
F68
sVgrade
p1187
V6c
p1188
sVavg_stars
p1189
V,8
p1190
sg18
F0.15909090909090909
sg19
F88
sg20
F6
sa(dp1191
g10
F2
sVname
p1192
VBig Money Grip
p1193
sg13
F68
sVgrade
p1194
V7b
p1195
sVavg_stars
p1196
V1,4
p1197
sg18
F0
sg19
F72
sg20
F2
sa(dp1198
g10
F5
sVname
p1199
VMoots Madness
p1200
sg13
F67
sVgrade
p1201
V6a
p1202
sVavg_stars
p1203
V,6
p1204
sg18
F0.068493150684931503
sg19
F73
sg20
F1
sa(dp1205
g10
F0
sVname
p1206
VJ Rat's Back
p1207
sg13
F64
sVgrade
p1208
V7a+
p1209
sVavg_stars
p1210
V1,2
p1211
sg18
F-0.12328767123287671
sg19
F73
sg20
F9
sa(dp1212
g10
F3
sVname
p1213
VCaptain Blondie Sinks the Ship
p1214
sg13
F61
sVgrade
p1215
V6c
p1216
sVavg_stars
p1217
V,9
p1218
sg18
F0
sg19
F67
sg20
F3
sa(dp1219
g10
F3
sVname
p1220
VStay Left
p1221
sg13
F68
sVgrade
p1222
V6a
p1223
sVavg_stars
p1224
V,5
p1225
sg18
F0
sg19
F74
sg20
F3
sa(dp1226
g10
F4
sVname
p1227
VSlick and the 9mm
p1228
sg13
F58
sVgrade
p1229
V6a+
p1230
sVavg_stars
p1231
V1
sg18
F0.061538461538461542
sg19
F65
sg20
F3
sa(dp1232
g10
F2
sVname
p1233
VHardcore Jollies
p1234
sg13
F67
sVgrade
p1235
V7a+
p1236
sVavg_stars
p1237
V1
sg18
F-0.13750000000000001
sg19
F80
sg20
F11
sa(dp1238
g10
F0
sVname
p1239
VSeek The Truth
p1240
sg13
F67
sVgrade
p1241
V7a
p1242
sVavg_stars
p1243
V1,4
p1244
sg18
F-0.0945945945945946
sg19
F74
sg20
F7
sa(dp1245
g10
F10
sVname
p1246
VMurano
p1247
sg13
F60
sVgrade
p1248
V6a+
p1249
sVavg_stars
p1250
V,9
p1251
sg18
F0.1388888888888889
sg19
F72
sg20
F2
sa(dp1252
g10
F2
sVname
p1253
VCapture the Flag
p1254
sg13
F56
sVgrade
p1255
V6c+
p1256
sVavg_stars
p1257
V1,1
p1258
sg18
F-0.064516129032258063
sg19
F62
sg20
F4
sa(dp1259
g10
F1
sVname
p1260
VJack in the Pulpit
p1261
sg13
F59
sVgrade
p1262
V6b+
p1263
sVavg_stars
p1264
V1
sg18
F0.016666666666666666
sg19
F60
sg20
F0
sa(dp1265
g10
F2
sVname
p1266
VBreathe Right
p1267
sg13
F56
sVgrade
p1268
V6c+
p1269
sVavg_stars
p1270
V1,1
p1271
sg18
F0
sg19
F60
sg20
F2
sa(dp1272
g10
F6
sVname
p1273
VEyeball Chaw
p1274
sg13
F57
sVgrade
p1275
V7a+
p1276
sVavg_stars
p1277
V1,3
p1278
sg18
F0.092307692307692313
sg19
F65
sg20
F2
sa(dp1279
g10
F17
sVname
p1280
VBitter Ray of Sunshine
p1281
sg13
F56
sVgrade
p1282
V6b
p1283
sVavg_stars
p1284
V,9
p1285
sg18
F0.20000000000000001
sg19
F85
sg20
F12
sa(dp1286
g10
F3
sVname
p1287
VCruisin' For A Bruisin'
p1288
sg13
F56
sVgrade
p1289
V6b+
p1290
sVavg_stars
p1291
V,9
p1292
sg18
F0
sg19
F62
sg20
F3
sa(dp1293
g10
F8
sVname
p1294
VSpecial Boy
p1295
sg13
F50
sVgrade
p1296
V6c+
p1297
sVavg_stars
p1298
V1,1
p1299
sg18
F0.13559322033898305
sg19
F59
sg20
F1
sa(dp1300
g10
F13
sVname
p1301
VHead and shoulders
p1302
sg13
F39
sVgrade
p1303
V7a
p1304
sVavg_stars
p1305
V1,8
p1306
sg18
F0.24074074074074073
sg19
F54
sg20
F2
sa(dp1307
g10
F12
sVname
p1308
VThe Flux Capacitor
p1309
sg13
F50
sVgrade
p1310
V7c
p1311
sVavg_stars
p1312
V1,6
p1313
sg18
F0.17910447761194029
sg19
F67
sg20
F5
sa(dp1314
g10
F5
sVname
p1315
VUp Yonder
p1316
sg13
F76
sVgrade
p1317
V6c+
p1318
sVavg_stars
p1319
V,9
p1320
sg18
F-0.13829787234042554
sg19
F94
sg20
F13
sa(dp1321
g10
F0
sVname
p1322
VSnozzberries
p1323
sg13
F37
sVgrade
p1324
V7a+
p1325
sVavg_stars
p1326
V1,6
p1327
sg18
F-0.31481481481481483
sg19
F54
sg20
F17
sasg18
F-0.011753345256576795
sS'coordinates'
p1328
(F38.040583699999999
F-84.503716400000002
tp1329
sVlocation
p1330
VLexington, KY
p1331
sS'num_soft'
p1332
I11
sa.